target datalayout = "e-m:e-p270:32:32-p271:32:32-p272:64:64-i64:64-i128:128-f80:128-n8:16:32:64-S128"
target triple = "x86_64-pc-linux-gnu"

%struct._psqlSettings = type { ptr, i32, ptr, i8, ptr, ptr, %struct.printQueryOpt, ptr, ptr, ptr, i8, i8, i32, i32, ptr, ptr, i8, [4 x ptr], i8, i32, ptr, i8, i32, ptr, ptr, i64, i64, i8, ptr, ptr, ptr, i8, i8, i8, i8, i8, i8, i8, i32, i32, i32, i32, i32, i32, i32, i32, ptr, ptr, ptr, i32, i8, i32 }
%struct.printQueryOpt = type { %struct.printTableOpt, ptr, ptr, ptr, i8, ptr, i32 }
%struct.printTableOpt = type { i32, i16, i32, i32, i16, i16, i32, i8, i8, i8, i8, i64, ptr, %struct.separator, %struct.separator, [2 x i8], i8, ptr, i32, i32, i32, i32, i32, i32 }
%struct.separator = type { ptr, i8 }
%struct.PQExpBufferData = type { ptr, i64, i64 }

@pset = external global %struct._psqlSettings, align 8
@.str.19 = private unnamed_addr constant [7 x i8] c"%s: %m\00", align 1
@.str.147 = private unnamed_addr constant [2 x i8] c"w\00", align 1
@.str.157 = private unnamed_addr constant [31 x i8] c"\\%s: missing required argument\00", align 1
@.str.192 = private unnamed_addr constant [16 x i8] c"no query buffer\00", align 1
@.str.276 = private unnamed_addr constant [4 x i8] c"%s\0A\00", align 1
@.str.277 = private unnamed_addr constant [7 x i8] c"%s: %s\00", align 1

; Function Attrs: nounwind uwtable
define internal void @ignore_slash_filepipe(ptr noundef %0) #0 {
  %2 = alloca ptr, align 8
  %3 = alloca ptr, align 8
  store ptr %0, ptr %2, align 8
  call void @llvm.lifetime.start.p0(i64 8, ptr %3) #10
  %4 = load ptr, ptr %2, align 8
  %5 = call ptr @psql_scan_slash_option(ptr noundef %4, i32 noundef 3, ptr noundef null, i1 noundef zeroext false)
  store ptr %5, ptr %3, align 8
  %6 = load ptr, ptr %3, align 8
  call void @free(ptr noundef %6) #10
  call void @llvm.lifetime.end.p0(i64 8, ptr %3) #10
  ret void
}

; Function Attrs: nounwind uwtable
define internal i32 @exec_command_write(ptr noundef %0, i1 noundef zeroext %1, ptr noundef %2, ptr noundef %3, ptr noundef %4) #0 {
  %6 = alloca ptr, align 8
  %7 = alloca i8, align 1
  %8 = alloca ptr, align 8
  %9 = alloca ptr, align 8
  %10 = alloca ptr, align 8
  %11 = alloca i32, align 4
  %12 = alloca ptr, align 8
  %13 = alloca ptr, align 8
  %14 = alloca i8, align 1
  %15 = alloca i32, align 4
  store ptr %0, ptr %6, align 8
  %16 = zext i1 %1 to i8
  store i8 %16, ptr %7, align 1
  store ptr %2, ptr %8, align 8
  store ptr %3, ptr %9, align 8
  store ptr %4, ptr %10, align 8
  call void @llvm.lifetime.start.p0(i64 4, ptr %11) #10
  store i32 2, ptr %11, align 4
  %17 = load i8, ptr %7, align 1, !range !4, !noundef !5
  %18 = trunc i8 %17 to i1
  br i1 %18, label %19, label %114

19:                                               ; preds = %5
  call void @llvm.lifetime.start.p0(i64 8, ptr %12) #10
  %20 = load ptr, ptr %6, align 8
  %21 = call ptr @psql_scan_slash_option(ptr noundef %20, i32 noundef 3, ptr noundef null, i1 noundef zeroext true)
  store ptr %21, ptr %12, align 8
  call void @llvm.lifetime.start.p0(i64 8, ptr %13) #10
  store ptr null, ptr %13, align 8
  call void @llvm.lifetime.start.p0(i64 1, ptr %14) #10
  store i8 0, ptr %14, align 1
  %22 = load ptr, ptr %9, align 8
  %23 = icmp ne ptr %22, null
  br i1 %23, label %25, label %24

24:                                               ; preds = %19
  call void (i32, i32, ptr, ...) @pg_log_generic(i32 noundef 4, i32 noundef 0, ptr noundef @.str.192)
  store i32 5, ptr %11, align 4
  br label %53

25:                                               ; preds = %19
  %26 = load ptr, ptr %12, align 8
  %27 = icmp ne ptr %26, null
  br i1 %27, label %30, label %28

28:                                               ; preds = %25
  %29 = load ptr, ptr %8, align 8
  call void (i32, i32, ptr, ...) @pg_log_generic(i32 noundef 4, i32 noundef 0, ptr noundef @.str.157, ptr noundef %29)
  store i32 5, ptr %11, align 4
  br label %52

30:                                               ; preds = %25
  call void @expand_tilde(ptr noundef %12)
  %31 = load ptr, ptr %12, align 8
  %32 = getelementptr inbounds i8, ptr %31, i64 0
  %33 = load i8, ptr %32, align 1
  %34 = sext i8 %33 to i32
  %35 = icmp eq i32 %34, 124
  br i1 %35, label %36, label %41

36:                                               ; preds = %30
  store i8 1, ptr %14, align 1
  %37 = call i32 @fflush(ptr noundef null)
  call void @disable_sigpipe_trap()
  %38 = load ptr, ptr %12, align 8
  %39 = getelementptr inbounds i8, ptr %38, i64 1
  %40 = call noalias ptr @popen(ptr noundef %39, ptr noundef @.str.147)
  store ptr %40, ptr %13, align 8
  br label %46

41:                                               ; preds = %30
  %42 = load ptr, ptr %12, align 8
  %43 = load i32, ptr getelementptr inbounds nuw (%struct._psqlSettings, ptr @pset, i32 0, i32 1), align 8
  call void @canonicalize_path_enc(ptr noundef %42, i32 noundef %43)
  %44 = load ptr, ptr %12, align 8
  %45 = call noalias ptr @fopen(ptr noundef %44, ptr noundef @.str.147)
  store ptr %45, ptr %13, align 8
  br label %46

46:                                               ; preds = %41, %36
  %47 = load ptr, ptr %13, align 8
  %48 = icmp ne ptr %47, null
  br i1 %48, label %51, label %49

49:                                               ; preds = %46
  %50 = load ptr, ptr %12, align 8
  call void (i32, i32, ptr, ...) @pg_log_generic(i32 noundef 4, i32 noundef 0, ptr noundef @.str.19, ptr noundef %50)
  store i32 5, ptr %11, align 4
  br label %51

51:                                               ; preds = %49, %46
  br label %52

52:                                               ; preds = %51, %28
  br label %53

53:                                               ; preds = %52, %24
  %54 = load ptr, ptr %13, align 8
  %55 = icmp ne ptr %54, null
  br i1 %55, label %56, label %108

56:                                               ; preds = %53
  call void @llvm.lifetime.start.p0(i64 4, ptr %15) #10
  %57 = load ptr, ptr %9, align 8
  %58 = icmp ne ptr %57, null
  br i1 %58, label %59, label %70

59:                                               ; preds = %56
  %60 = load ptr, ptr %9, align 8
  %61 = getelementptr inbounds nuw %struct.PQExpBufferData, ptr %60, i32 0, i32 1
  %62 = load i64, ptr %61, align 8
  %63 = icmp ugt i64 %62, 0
  br i1 %63, label %64, label %70

64:                                               ; preds = %59
  %65 = load ptr, ptr %13, align 8
  %66 = load ptr, ptr %9, align 8
  %67 = getelementptr inbounds nuw %struct.PQExpBufferData, ptr %66, i32 0, i32 0
  %68 = load ptr, ptr %67, align 8
  %69 = call i32 (ptr, ptr, ...) @pg_fprintf(ptr noundef %65, ptr noundef @.str.276, ptr noundef %68)
  br label %85

70:                                               ; preds = %59, %56
  %71 = load ptr, ptr %10, align 8
  %72 = icmp ne ptr %71, null
  br i1 %72, label %73, label %84

73:                                               ; preds = %70
  %74 = load ptr, ptr %10, align 8
  %75 = getelementptr inbounds nuw %struct.PQExpBufferData, ptr %74, i32 0, i32 1
  %76 = load i64, ptr %75, align 8
  %77 = icmp ugt i64 %76, 0
  br i1 %77, label %78, label %84

78:                                               ; preds = %73
  %79 = load ptr, ptr %13, align 8
  %80 = load ptr, ptr %10, align 8
  %81 = getelementptr inbounds nuw %struct.PQExpBufferData, ptr %80, i32 0, i32 0
  %82 = load ptr, ptr %81, align 8
  %83 = call i32 (ptr, ptr, ...) @pg_fprintf(ptr noundef %79, ptr noundef @.str.276, ptr noundef %82)
  br label %84

84:                                               ; preds = %78, %73, %70
  br label %85

85:                                               ; preds = %84, %64
  %86 = load i8, ptr %14, align 1, !range !4, !noundef !5
  %87 = trunc i8 %86 to i1
  br i1 %87, label %88, label %99

88:                                               ; preds = %85
  %89 = load ptr, ptr %13, align 8
  %90 = call i32 @pclose(ptr noundef %89)
  store i32 %90, ptr %15, align 4
  %91 = load i32, ptr %15, align 4
  %92 = icmp ne i32 %91, 0
  br i1 %92, label %93, label %97

93:                                               ; preds = %88
  %94 = load ptr, ptr %12, align 8
  %95 = load i32, ptr %15, align 4
  %96 = call ptr @wait_result_to_str(i32 noundef %95)
  call void (i32, i32, ptr, ...) @pg_log_generic(i32 noundef 4, i32 noundef 0, ptr noundef @.str.277, ptr noundef %94, ptr noundef %96)
  store i32 5, ptr %11, align 4
  br label %97

97:                                               ; preds = %93, %88
  %98 = load i32, ptr %15, align 4
  call void @SetShellResultVariables(i32 noundef %98)
  br label %107

99:                                               ; preds = %85
  %100 = load ptr, ptr %13, align 8
  %101 = call i32 @fclose(ptr noundef %100)
  store i32 %101, ptr %15, align 4
  %102 = load i32, ptr %15, align 4
  %103 = icmp eq i32 %102, -1
  br i1 %103, label %104, label %106

104:                                              ; preds = %99
  %105 = load ptr, ptr %12, align 8
  call void (i32, i32, ptr, ...) @pg_log_generic(i32 noundef 4, i32 noundef 0, ptr noundef @.str.19, ptr noundef %105)
  store i32 5, ptr %11, align 4
  br label %106

106:                                              ; preds = %104, %99
  br label %107

107:                                              ; preds = %106, %97
  call void @llvm.lifetime.end.p0(i64 4, ptr %15) #10
  br label %108

108:                                              ; preds = %107, %53
  %109 = load i8, ptr %14, align 1, !range !4, !noundef !5
  %110 = trunc i8 %109 to i1
  br i1 %110, label %111, label %112

111:                                              ; preds = %108
  call void @restore_sigpipe_trap()
  br label %112

112:                                              ; preds = %111, %108
  %113 = load ptr, ptr %12, align 8
  call void @free(ptr noundef %113) #10
  call void @llvm.lifetime.end.p0(i64 1, ptr %14) #10
  call void @llvm.lifetime.end.p0(i64 8, ptr %13) #10
  call void @llvm.lifetime.end.p0(i64 8, ptr %12) #10
  br label %116

114:                                              ; preds = %5
  %115 = load ptr, ptr %6, align 8
  call void @ignore_slash_filepipe(ptr noundef %115)
  br label %116

116:                                              ; preds = %114, %112
  %117 = load i32, ptr %11, align 4
  call void @llvm.lifetime.end.p0(i64 4, ptr %11) #10
  ret i32 %117
}