; Function Attrs: nounwind uwtable
define internal fastcc range(i32 2, 6) i32 @exec_command_write(ptr noundef %0, i1 noundef zeroext %1, ptr noundef %2, ptr noundef readonly captures(address_is_null) %3, ptr noundef readonly captures(address_is_null) %4) unnamed_addr #0 {
  %6 = alloca ptr, align 8
  br i1 %1, label %7, label %49

7:                                                ; preds = %5
  call void @llvm.lifetime.start.p0(i64 8, ptr nonnull %6) #16
  %8 = tail call ptr @psql_scan_slash_option(ptr noundef %0, i32 noundef 3, ptr noundef null, i1 noundef zeroext true) #16
  store ptr %8, ptr %6, align 8
  %.not = icmp eq ptr %3, null
  br i1 %.not, label %9, label %10

9:                                                ; preds = %7
  tail call void (i32, i32, ptr, ...) @pg_log_generic(i32 noundef 4, i32 noundef 0, ptr noundef nonnull @.str.192) #16
  br label %.thread43

10:                                               ; preds = %7
  %.not30 = icmp eq ptr %8, null
  br i1 %.not30, label %11, label %12

11:                                               ; preds = %10
  tail call void (i32, i32, ptr, ...) @pg_log_generic(i32 noundef 4, i32 noundef 0, ptr noundef nonnull @.str.157, ptr noundef %2) #16
  br label %.thread43

12:                                               ; preds = %10
  call void @expand_tilde(ptr noundef nonnull %6) #16
  %13 = load ptr, ptr %6, align 8
  %14 = load i8, ptr %13, align 1
  %15 = icmp eq i8 %14, 124
  br i1 %15, label %16, label %.thread

16:                                               ; preds = %12
  %17 = call i32 @fflush(ptr noundef null)
  call void @disable_sigpipe_trap() #16
  %18 = load ptr, ptr %6, align 8
  %19 = getelementptr inbounds nuw i8, ptr %18, i64 1
  %20 = call noalias ptr @popen(ptr noundef nonnull %19, ptr noundef nonnull @.str.147)
  %.not31 = icmp eq ptr %20, null
  br i1 %.not31, label %45, label %25

.thread:                                          ; preds = %12
  %21 = load i32, ptr getelementptr inbounds nuw (i8, ptr @pset, i64 8), align 8
  call void @canonicalize_path_enc(ptr noundef nonnull %13, i32 noundef %21) #16
  %22 = load ptr, ptr %6, align 8
  %23 = call noalias ptr @fopen(ptr noundef %22, ptr noundef nonnull @.str.147)
  %.not3155 = icmp eq ptr %23, null
  br i1 %.not3155, label %.thread57, label %25

.thread57:                                        ; preds = %.thread
  %24 = load ptr, ptr %6, align 8
  call void (i32, i32, ptr, ...) @pg_log_generic(i32 noundef 4, i32 noundef 0, ptr noundef nonnull @.str.19, ptr noundef %24) #16
  br label %.thread43

25:                                               ; preds = %.thread, %16
  %.12456 = phi ptr [ %23, %.thread ], [ %20, %16 ]
  %26 = getelementptr inbounds nuw i8, ptr %3, i64 8
  %27 = load i64, ptr %26, align 8
  %.not33 = icmp eq i64 %27, 0
  br i1 %.not33, label %28, label %.sink.split

28:                                               ; preds = %25
  %.not34 = icmp eq ptr %4, null
  br i1 %.not34, label %34, label %29

29:                                               ; preds = %28
  %30 = getelementptr inbounds nuw i8, ptr %4, i64 8
  %31 = load i64, ptr %30, align 8
  %.not35 = icmp eq i64 %31, 0
  br i1 %.not35, label %34, label %.sink.split

.sink.split:                                      ; preds = %29, %25
  %.sink58 = phi ptr [ %3, %25 ], [ %4, %29 ]
  %32 = load ptr, ptr %.sink58, align 8
  %33 = call i32 (ptr, ptr, ...) @pg_fprintf(ptr noundef nonnull %.12456, ptr noundef nonnull @.str.276, ptr noundef %32) #16
  br label %34

34:                                               ; preds = %.sink.split, %28, %29
  br i1 %15, label %35, label %40

35:                                               ; preds = %34
  %36 = call i32 @pclose(ptr noundef nonnull %.12456)
  %.not36 = icmp eq i32 %36, 0
  br i1 %.not36, label %.thread47, label %37

37:                                               ; preds = %35
  %38 = load ptr, ptr %6, align 8
  %39 = call ptr @wait_result_to_str(i32 noundef %36) #16
  call void (i32, i32, ptr, ...) @pg_log_generic(i32 noundef 4, i32 noundef 0, ptr noundef nonnull @.str.277, ptr noundef %38, ptr noundef %39) #16
  br label %.thread47

.thread47:                                        ; preds = %35, %37
  %.2 = phi i32 [ 5, %37 ], [ 2, %35 ]
  call void @SetShellResultVariables(i32 noundef %36) #16
  br label %47

40:                                               ; preds = %34
  %41 = call i32 @fclose(ptr noundef nonnull %.12456)
  %42 = icmp eq i32 %41, -1
  br i1 %42, label %43, label %.thread43

43:                                               ; preds = %40
  %44 = load ptr, ptr %6, align 8
  call void (i32, i32, ptr, ...) @pg_log_generic(i32 noundef 4, i32 noundef 0, ptr noundef nonnull @.str.19, ptr noundef %44) #16
  br label %.thread43

45:                                               ; preds = %16
  %46 = load ptr, ptr %6, align 8
  call void (i32, i32, ptr, ...) @pg_log_generic(i32 noundef 4, i32 noundef 0, ptr noundef nonnull @.str.19, ptr noundef %46) #16
  br label %47

47:                                               ; preds = %45, %.thread47
  %.12650 = phi i32 [ %.2, %.thread47 ], [ 5, %45 ]
  call void @restore_sigpipe_trap() #16
  br label %.thread43

.thread43:                                        ; preds = %.thread57, %11, %9, %40, %43, %47
  %.12646 = phi i32 [ %.12650, %47 ], [ 2, %40 ], [ 5, %43 ], [ 5, %9 ], [ 5, %11 ], [ 5, %.thread57 ]
  %48 = load ptr, ptr %6, align 8
  call void @free(ptr noundef %48) #16
  call void @llvm.lifetime.end.p0(i64 8, ptr nonnull %6) #16
  br label %51

49:                                               ; preds = %5
  %50 = tail call ptr @psql_scan_slash_option(ptr noundef %0, i32 noundef 3, ptr noundef null, i1 noundef zeroext false) #16
  tail call void @free(ptr noundef %50) #16
  br label %51

51:                                               ; preds = %49, %.thread43
  %.4 = phi i32 [ %.12646, %.thread43 ], [ 2, %49 ]
  ret i32 %.4
}